target datalayout = "e-m:e-p270:32:32-p271:32:32-p272:64:64-i64:64-i128:128-f80:128-n8:16:32:64-S128"
target triple = "x86_64-unknown-linux-gnu"

%"class.google::protobuf::internal::InternalMetadata" = type { i64 }
%"class.google::protobuf::internal::CachedSize" = type { i32 }
%"class.google::protobuf::internal::ImplicitWeakMessage" = type <{ %"class.google::protobuf::MessageLite", ptr, %"class.google::protobuf::internal::CachedSize", [4 x i8] }>
%"class.google::protobuf::MessageLite" = type { ptr, %"class.google::protobuf::internal::InternalMetadata" }
%class.anon = type { ptr }
%"class.google::protobuf::internal::EpsCopyInputStream" = type { ptr, ptr, ptr, i32, i32, ptr, [32 x i8], i64, i32, i32 }

; Function Attrs: mustprogress uwtable
define linkonce_odr hidden void @_ZZN6google8protobuf8internal18EpsCopyInputStream12AppendStringEPKcPNSt7__cxx1112basic_stringIcSt11char_traitsIcESaIcEEEENKUlS4_lE_clES4_l(ptr noundef nonnull align 8 dereferenceable(8) %this, ptr noundef %p, i64 noundef %s) #4 comdat align 2 {
entry:
  %this.addr = alloca ptr, align 8
  %p.addr = alloca ptr, align 8
  %s.addr = alloca i64, align 8
  store ptr %this, ptr %this.addr, align 8
  store ptr %p, ptr %p.addr, align 8
  store i64 %s, ptr %s.addr, align 8
  %this1 = load ptr, ptr %this.addr, align 8
  %0 = getelementptr inbounds %class.anon, ptr %this1, i32 0, i32 0
  %1 = load ptr, ptr %0, align 8
  %2 = load ptr, ptr %p.addr, align 8
  %3 = load i64, ptr %s.addr, align 8
  %call = call noundef nonnull align 8 dereferenceable(32) ptr @_ZNSt7__cxx1112basic_stringIcSt11char_traitsIcESaIcEE6appendEPKcm(ptr noundef nonnull align 8 dereferenceable(32) %1, ptr noundef %2, i64 noundef %3)
  ret void
}

; Function Attrs: mustprogress uwtable
define linkonce_odr hidden noundef ptr @_ZN6google8protobuf8internal18EpsCopyInputStream14AppendUntilEndIZNS2_12AppendStringEPKcPNSt7__cxx1112basic_stringIcSt11char_traitsIcESaIcEEEEUlS5_lE_EES5_S5_RKT_(ptr noundef nonnull align 8 dereferenceable(88) %this, ptr noundef %ptr, ptr noundef nonnull align 8 dereferenceable(8) %append) #4 comdat align 2 {
entry:
  %retval = alloca ptr, align 8
  %this.addr = alloca ptr, align 8
  %ptr.addr = alloca ptr, align 8
  %append.addr = alloca ptr, align 8
  %chunk_size = alloca i64, align 8
  %end = alloca ptr, align 8
  store ptr %this, ptr %this.addr, align 8
  store ptr %ptr, ptr %ptr.addr, align 8
  store ptr %append, ptr %append.addr, align 8
  %this1 = load ptr, ptr %this.addr, align 8
  %0 = load ptr, ptr %ptr.addr, align 8
  %buffer_end_ = getelementptr inbounds %"class.google::protobuf::internal::EpsCopyInputStream", ptr %this1, i32 0, i32 1
  %1 = load ptr, ptr %buffer_end_, align 8
  %sub.ptr.lhs.cast = ptrtoint ptr %0 to i64
  %sub.ptr.rhs.cast = ptrtoint ptr %1 to i64
  %sub.ptr.sub = sub i64 %sub.ptr.lhs.cast, %sub.ptr.rhs.cast
  %limit_ = getelementptr inbounds %"class.google::protobuf::internal::EpsCopyInputStream", ptr %this1, i32 0, i32 4
  %2 = load i32, ptr %limit_, align 4
  %conv = sext i32 %2 to i64
  %cmp = icmp sgt i64 %sub.ptr.sub, %conv
  br i1 %cmp, label %if.then, label %if.end

if.then:                                          ; preds = %entry
  store ptr null, ptr %retval, align 8
  br label %return

if.end:                                           ; preds = %entry
  br label %while.cond

while.cond:                                       ; preds = %if.end10, %if.end
  %limit_2 = getelementptr inbounds %"class.google::protobuf::internal::EpsCopyInputStream", ptr %this1, i32 0, i32 4
  %3 = load i32, ptr %limit_2, align 4
  %cmp3 = icmp sgt i32 %3, 16
  br i1 %cmp3, label %while.body, label %while.end

while.body:                                       ; preds = %while.cond
  %buffer_end_4 = getelementptr inbounds %"class.google::protobuf::internal::EpsCopyInputStream", ptr %this1, i32 0, i32 1
  %4 = load ptr, ptr %buffer_end_4, align 8
  %add.ptr = getelementptr inbounds i8, ptr %4, i64 16
  %5 = load ptr, ptr %ptr.addr, align 8
  %sub.ptr.lhs.cast5 = ptrtoint ptr %add.ptr to i64
  %sub.ptr.rhs.cast6 = ptrtoint ptr %5 to i64
  %sub.ptr.sub7 = sub i64 %sub.ptr.lhs.cast5, %sub.ptr.rhs.cast6
  store i64 %sub.ptr.sub7, ptr %chunk_size, align 8
  %6 = load ptr, ptr %append.addr, align 8
  %7 = load ptr, ptr %ptr.addr, align 8
  %8 = load i64, ptr %chunk_size, align 8
  call void @_ZZN6google8protobuf8internal18EpsCopyInputStream12AppendStringEPKcPNSt7__cxx1112basic_stringIcSt11char_traitsIcESaIcEEEENKUlS4_lE_clES4_l(ptr noundef nonnull align 8 dereferenceable(8) %6, ptr noundef %7, i64 noundef %8)
  %call = call noundef ptr @_ZN6google8protobuf8internal18EpsCopyInputStream4NextEv(ptr noundef nonnull align 8 dereferenceable(88) %this1)
  store ptr %call, ptr %ptr.addr, align 8
  %9 = load ptr, ptr %ptr.addr, align 8
  %cmp8 = icmp eq ptr %9, null
  br i1 %cmp8, label %if.then9, label %if.end10

if.then9:                                         ; preds = %while.body
  %limit_end_ = getelementptr inbounds %"class.google::protobuf::internal::EpsCopyInputStream", ptr %this1, i32 0, i32 0
  %10 = load ptr, ptr %limit_end_, align 8
  store ptr %10, ptr %retval, align 8
  br label %return

if.end10:                                         ; preds = %while.body
  %11 = load ptr, ptr %ptr.addr, align 8
  %add.ptr11 = getelementptr inbounds i8, ptr %11, i64 16
  store ptr %add.ptr11, ptr %ptr.addr, align 8
  br label %while.cond, !llvm.loop !4

while.end:                                        ; preds = %while.cond
  %buffer_end_12 = getelementptr inbounds %"class.google::protobuf::internal::EpsCopyInputStream", ptr %this1, i32 0, i32 1
  %12 = load ptr, ptr %buffer_end_12, align 8
  %limit_13 = getelementptr inbounds %"class.google::protobuf::internal::EpsCopyInputStream", ptr %this1, i32 0, i32 4
  %13 = load i32, ptr %limit_13, align 4
  %idx.ext = sext i32 %13 to i64
  %add.ptr14 = getelementptr inbounds i8, ptr %12, i64 %idx.ext
  store ptr %add.ptr14, ptr %end, align 8
  %14 = load ptr, ptr %append.addr, align 8
  %15 = load ptr, ptr %ptr.addr, align 8
  %16 = load ptr, ptr %end, align 8
  %17 = load ptr, ptr %ptr.addr, align 8
  %sub.ptr.lhs.cast15 = ptrtoint ptr %16 to i64
  %sub.ptr.rhs.cast16 = ptrtoint ptr %17 to i64
  %sub.ptr.sub17 = sub i64 %sub.ptr.lhs.cast15, %sub.ptr.rhs.cast16
  call void @_ZZN6google8protobuf8internal18EpsCopyInputStream12AppendStringEPKcPNSt7__cxx1112basic_stringIcSt11char_traitsIcESaIcEEEENKUlS4_lE_clES4_l(ptr noundef nonnull align 8 dereferenceable(8) %14, ptr noundef %15, i64 noundef %sub.ptr.sub17)
  %18 = load ptr, ptr %end, align 8
  store ptr %18, ptr %retval, align 8
  br label %return

return:                                           ; preds = %while.end, %if.then9, %if.then
  %19 = load ptr, ptr %retval, align 8
  ret ptr %19
}

; Function Attrs: mustprogress uwtable
define linkonce_odr hidden noundef ptr @_ZN6google8protobuf8internal18EpsCopyInputStream12AppendStringEPKcPNSt7__cxx1112basic_stringIcSt11char_traitsIcESaIcEEE(ptr noundef nonnull align 8 dereferenceable(88) %this, ptr noundef %ptr, ptr noundef %str) #4 comdat align 2 {
entry:
  %this.addr = alloca ptr, align 8
  %ptr.addr = alloca ptr, align 8
  %str.addr = alloca ptr, align 8
  %ref.tmp = alloca %class.anon, align 8
  store ptr %this, ptr %this.addr, align 8
  store ptr %ptr, ptr %ptr.addr, align 8
  store ptr %str, ptr %str.addr, align 8
  %this1 = load ptr, ptr %this.addr, align 8
  %0 = load ptr, ptr %ptr.addr, align 8
  %1 = getelementptr inbounds %class.anon, ptr %ref.tmp, i32 0, i32 0
  %2 = load ptr, ptr %str.addr, align 8
  store ptr %2, ptr %1, align 8
  %call = call noundef ptr @_ZN6google8protobuf8internal18EpsCopyInputStream14AppendUntilEndIZNS2_12AppendStringEPKcPNSt7__cxx1112basic_stringIcSt11char_traitsIcESaIcEEEEUlS5_lE_EES5_S5_RKT_(ptr noundef nonnull align 8 dereferenceable(88) %this1, ptr noundef %0, ptr noundef nonnull align 8 dereferenceable(8) %ref.tmp)
  ret ptr %call
}

; Function Attrs: mustprogress uwtable
define noundef ptr @_ZN6google8protobuf8internal19ImplicitWeakMessage14_InternalParseEPKcPNS1_12ParseContextE(ptr noundef nonnull align 8 dereferenceable(28) %this, ptr noundef %ptr, ptr noundef %ctx) unnamed_addr #4 align 2 {
entry:
  %this.addr = alloca ptr, align 8
  %ptr.addr = alloca ptr, align 8
  %ctx.addr = alloca ptr, align 8
  store ptr %this, ptr %this.addr, align 8
  store ptr %ptr, ptr %ptr.addr, align 8
  store ptr %ctx, ptr %ctx.addr, align 8
  %this1 = load ptr, ptr %this.addr, align 8
  %0 = load ptr, ptr %ctx.addr, align 8
  %1 = load ptr, ptr %ptr.addr, align 8
  %data_ = getelementptr inbounds %"class.google::protobuf::internal::ImplicitWeakMessage", ptr %this1, i32 0, i32 1
  %2 = load ptr, ptr %data_, align 8
  %call = call noundef ptr @_ZN6google8protobuf8internal18EpsCopyInputStream12AppendStringEPKcPNSt7__cxx1112basic_stringIcSt11char_traitsIcESaIcEEE(ptr noundef nonnull align 8 dereferenceable(88) %0, ptr noundef %1, ptr noundef %2)
  ret ptr %call
}