; Function Attrs: mustprogress uwtable
define noundef ptr @_ZN6google8protobuf8internal19ImplicitWeakMessage14_InternalParseEPKcPNS1_12ParseContextE(ptr nocapture noundef nonnull readonly align 8 dereferenceable(28) %this, ptr noundef %ptr, ptr noundef %ctx) unnamed_addr #3 align 2 {
entry:
  %data_ = getelementptr inbounds i8, ptr %this, i64 16
  %0 = load ptr, ptr %data_, align 8
  %buffer_end_.i.i = getelementptr inbounds i8, ptr %ctx, i64 8
  %1 = load ptr, ptr %buffer_end_.i.i, align 8
  %sub.ptr.lhs.cast.i.i = ptrtoint ptr %ptr to i64
  %sub.ptr.rhs.cast.i.i = ptrtoint ptr %1 to i64
  %sub.ptr.sub.i.i = sub i64 %sub.ptr.lhs.cast.i.i, %sub.ptr.rhs.cast.i.i
  %limit_.i.i = getelementptr inbounds i8, ptr %ctx, i64 28
  %2 = load i32, ptr %limit_.i.i, align 4
  %conv.i.i = sext i32 %2 to i64
  %cmp.i.i = icmp sgt i64 %sub.ptr.sub.i.i, %conv.i.i
  br i1 %cmp.i.i, label %_ZN6google8protobuf8internal18EpsCopyInputStream12AppendStringEPKcPNSt7__cxx1112basic_stringIcSt11char_traitsIcESaIcEEE.exit, label %while.cond.preheader.i.i

while.cond.preheader.i.i:                         ; preds = %entry
  %cmp312.i.i = icmp sgt i32 %2, 16
  br i1 %cmp312.i.i, label %while.body.i.i, label %while.end.i.i

while.body.i.i:                                   ; preds = %while.cond.preheader.i.i, %if.end10.i.i
  %ptr.addr.013.i.i = phi ptr [ %add.ptr11.i.i, %if.end10.i.i ], [ %ptr, %while.cond.preheader.i.i ]
  %3 = load ptr, ptr %buffer_end_.i.i, align 8
  %add.ptr.i.i = getelementptr inbounds i8, ptr %3, i64 16
  %sub.ptr.lhs.cast5.i.i = ptrtoint ptr %add.ptr.i.i to i64
  %sub.ptr.rhs.cast6.i.i = ptrtoint ptr %ptr.addr.013.i.i to i64
  %sub.ptr.sub7.i.i = sub i64 %sub.ptr.lhs.cast5.i.i, %sub.ptr.rhs.cast6.i.i
  %call.i.i.i = tail call noundef nonnull align 8 dereferenceable(32) ptr @_ZNSt7__cxx1112basic_stringIcSt11char_traitsIcESaIcEE6appendEPKcm(ptr noundef nonnull align 8 dereferenceable(32) %0, ptr noundef %ptr.addr.013.i.i, i64 noundef %sub.ptr.sub7.i.i)
  %call.i.i = tail call noundef ptr @_ZN6google8protobuf8internal18EpsCopyInputStream4NextEv(ptr noundef nonnull align 8 dereferenceable(88) %ctx)
  %cmp8.i.i = icmp eq ptr %call.i.i, null
  br i1 %cmp8.i.i, label %if.then9.i.i, label %if.end10.i.i

if.then9.i.i:                                     ; preds = %while.body.i.i
  %4 = load ptr, ptr %ctx, align 8
  br label %_ZN6google8protobuf8internal18EpsCopyInputStream12AppendStringEPKcPNSt7__cxx1112basic_stringIcSt11char_traitsIcESaIcEEE.exit

if.end10.i.i:                                     ; preds = %while.body.i.i
  %add.ptr11.i.i = getelementptr inbounds i8, ptr %call.i.i, i64 16
  %.pr.i.i = load i32, ptr %limit_.i.i, align 4
  %cmp3.i.i = icmp sgt i32 %.pr.i.i, 16
  br i1 %cmp3.i.i, label %while.body.i.i, label %while.end.loopexit.i.i, !llvm.loop !4

while.end.loopexit.i.i:                           ; preds = %if.end10.i.i
  %.pre.i.i = load ptr, ptr %buffer_end_.i.i, align 8
  %.pre15.i.i = sext i32 %.pr.i.i to i64
  %.pre16.i.i = ptrtoint ptr %add.ptr11.i.i to i64
  br label %while.end.i.i

while.end.i.i:                                    ; preds = %while.end.loopexit.i.i, %while.cond.preheader.i.i
  %sub.ptr.rhs.cast16.pre-phi.i.i = phi i64 [ %.pre16.i.i, %while.end.loopexit.i.i ], [ %sub.ptr.lhs.cast.i.i, %while.cond.preheader.i.i ]
  %idx.ext.pre-phi.i.i = phi i64 [ %.pre15.i.i, %while.end.loopexit.i.i ], [ %conv.i.i, %while.cond.preheader.i.i ]
  %5 = phi ptr [ %.pre.i.i, %while.end.loopexit.i.i ], [ %1, %while.cond.preheader.i.i ]
  %ptr.addr.0.lcssa.i.i = phi ptr [ %add.ptr11.i.i, %while.end.loopexit.i.i ], [ %ptr, %while.cond.preheader.i.i ]
  %add.ptr14.i.i = getelementptr inbounds i8, ptr %5, i64 %idx.ext.pre-phi.i.i
  %sub.ptr.lhs.cast15.i.i = ptrtoint ptr %add.ptr14.i.i to i64
  %sub.ptr.sub17.i.i = sub i64 %sub.ptr.lhs.cast15.i.i, %sub.ptr.rhs.cast16.pre-phi.i.i
  %call.i9.i.i = tail call noundef nonnull align 8 dereferenceable(32) ptr @_ZNSt7__cxx1112basic_stringIcSt11char_traitsIcESaIcEE6appendEPKcm(ptr noundef nonnull align 8 dereferenceable(32) %0, ptr noundef %ptr.addr.0.lcssa.i.i, i64 noundef %sub.ptr.sub17.i.i)
  br label %_ZN6google8protobuf8internal18EpsCopyInputStream12AppendStringEPKcPNSt7__cxx1112basic_stringIcSt11char_traitsIcESaIcEEE.exit

_ZN6google8protobuf8internal18EpsCopyInputStream12AppendStringEPKcPNSt7__cxx1112basic_stringIcSt11char_traitsIcESaIcEEE.exit: ; preds = %entry, %if.then9.i.i, %while.end.i.i
  %retval.0.i.i = phi ptr [ %4, %if.then9.i.i ], [ %add.ptr14.i.i, %while.end.i.i ], [ null, %entry ]
  ret ptr %retval.0.i.i
}